target datalayout = "e-m:e-p270:32:32-p271:32:32-p272:64:64-i64:64-i128:128-f80:128-n8:16:32:64-S128"
target triple = "x86_64-pc-linux-gnu"

%struct.pmix_tma = type { ptr, ptr, ptr, ptr, ptr, ptr, ptr, ptr }
%union.pthread_mutex_t = type { %struct.__pthread_mutex_s }
%struct.__pthread_mutex_s = type { i32, i32, i32, i32, i32, i16, i16, %struct.__pthread_internal_list }
%struct.__pthread_internal_list = type { ptr, ptr }
%struct.pmix_object_t = type { %union.pthread_mutex_t, ptr, i32, %struct.pmix_tma }
%struct.pmix_list_t = type { %struct.pmix_object_t, %struct.pmix_list_item_t, i64 }
%struct.pmix_list_item_t = type { %struct.pmix_object_t, ptr, ptr, i32 }
%struct.pmix_cleanup_file_t = type { %struct.pmix_list_item_t, ptr }
%struct.pmix_cleanup_dir_t = type { %struct.pmix_list_item_t, ptr, i8, i8 }
%struct.pmix_epilog_t = type { i32, i32, %struct.pmix_list_t, %struct.pmix_list_t, %struct.pmix_list_t }
%struct.dirent = type { i64, i64, i16, i8, [256 x i8] }

@.str.26 = private unnamed_addr constant [2 x i8] c".\00", align 1
@.str.27 = private unnamed_addr constant [3 x i8] c"..\00", align 1

; Function Attrs: nounwind uwtable
define internal zeroext i1 @dirpath_is_empty(ptr noundef %0) #0 {
  %2 = alloca i1, align 1
  %3 = alloca ptr, align 8
  %4 = alloca ptr, align 8
  %5 = alloca ptr, align 8
  %6 = alloca i32, align 4
  store ptr %0, ptr %3, align 8, !tbaa !264
  call void @llvm.lifetime.start.p0(i64 8, ptr %4) #13
  call void @llvm.lifetime.start.p0(i64 8, ptr %5) #13
  %7 = load ptr, ptr %3, align 8, !tbaa !264
  %8 = icmp ne ptr null, %7
  br i1 %8, label %9, label %39

9:                                                ; preds = %1
  %10 = load ptr, ptr %3, align 8, !tbaa !264
  %11 = call ptr @opendir(ptr noundef %10)
  store ptr %11, ptr %4, align 8, !tbaa !275
  %12 = load ptr, ptr %4, align 8, !tbaa !275
  %13 = icmp ne ptr null, %12
  br i1 %13, label %14, label %38

14:                                               ; preds = %9
  br label %15

15:                                               ; preds = %34, %14
  %16 = load ptr, ptr %4, align 8, !tbaa !275
  %17 = call ptr @readdir(ptr noundef %16)
  store ptr %17, ptr %5, align 8, !tbaa !287
  %18 = icmp ne ptr %17, null
  br i1 %18, label %19, label %35

19:                                               ; preds = %15
  %20 = load ptr, ptr %5, align 8, !tbaa !287
  %21 = getelementptr inbounds nuw %struct.dirent, ptr %20, i32 0, i32 4
  %22 = getelementptr inbounds [256 x i8], ptr %21, i64 0, i64 0
  %23 = call i32 @strcmp(ptr noundef %22, ptr noundef @.str.26) #17
  %24 = icmp ne i32 0, %23
  br i1 %24, label %25, label %34

25:                                               ; preds = %19
  %26 = load ptr, ptr %5, align 8, !tbaa !287
  %27 = getelementptr inbounds nuw %struct.dirent, ptr %26, i32 0, i32 4
  %28 = getelementptr inbounds [256 x i8], ptr %27, i64 0, i64 0
  %29 = call i32 @strcmp(ptr noundef %28, ptr noundef @.str.27) #17
  %30 = icmp ne i32 0, %29
  br i1 %30, label %31, label %34

31:                                               ; preds = %25
  %32 = load ptr, ptr %4, align 8, !tbaa !275
  %33 = call i32 @closedir(ptr noundef %32)
  store i1 false, ptr %2, align 1
  store i32 1, ptr %6, align 4
  br label %40

34:                                               ; preds = %25, %19
  br label %15, !llvm.loop !438

35:                                               ; preds = %15
  %36 = load ptr, ptr %4, align 8, !tbaa !275
  %37 = call i32 @closedir(ptr noundef %36)
  store i1 true, ptr %2, align 1
  store i32 1, ptr %6, align 4
  br label %40

38:                                               ; preds = %9
  store i1 false, ptr %2, align 1
  store i32 1, ptr %6, align 4
  br label %40

39:                                               ; preds = %1
  store i1 true, ptr %2, align 1
  store i32 1, ptr %6, align 4
  br label %40

40:                                               ; preds = %39, %38, %35, %31
  call void @llvm.lifetime.end.p0(i64 8, ptr %5) #13
  call void @llvm.lifetime.end.p0(i64 8, ptr %4) #13
  %41 = load i1, ptr %2, align 1
  ret i1 %41
}

; Function Attrs: nounwind uwtable
define internal void @dirpath_destroy(ptr noundef %0, ptr noundef %1, ptr noundef %2) #0 {
  %4 = alloca ptr, align 8
  %5 = alloca ptr, align 8
  %6 = alloca ptr, align 8
  %7 = alloca ptr, align 8
  %8 = alloca ptr, align 8
  %9 = alloca ptr, align 8
  %10 = alloca ptr, align 8
  %11 = alloca ptr, align 8
  %12 = alloca i32, align 4
  store ptr %0, ptr %4, align 8, !tbaa !264
  store ptr %1, ptr %5, align 8, !tbaa !3
  store ptr %2, ptr %6, align 8, !tbaa !259
  call void @llvm.lifetime.start.p0(i64 8, ptr %7) #13
  call void @llvm.lifetime.start.p0(i64 8, ptr %8) #13
  call void @llvm.lifetime.start.p0(i64 8, ptr %9) #13
  call void @llvm.lifetime.start.p0(i64 8, ptr %10) #13
  call void @llvm.lifetime.start.p0(i64 8, ptr %11) #13
  %13 = load ptr, ptr %4, align 8, !tbaa !264
  %14 = icmp eq ptr null, %13
  br i1 %14, label %15, label %16

15:                                               ; preds = %3
  store i32 1, ptr %12, align 4
  br label %147

16:                                               ; preds = %3
  %17 = load ptr, ptr %6, align 8, !tbaa !259
  %18 = getelementptr inbounds nuw %struct.pmix_epilog_t, ptr %17, i32 0, i32 4
  %19 = getelementptr inbounds nuw %struct.pmix_list_t, ptr %18, i32 0, i32 1
  %20 = getelementptr inbounds nuw %struct.pmix_list_item_t, ptr %19, i32 0, i32 1
  %21 = load ptr, ptr %20, align 8, !tbaa !285
  store ptr %21, ptr %11, align 8, !tbaa !3
  br label %22

22:                                               ; preds = %37, %16
  %23 = load ptr, ptr %11, align 8, !tbaa !3
  %24 = load ptr, ptr %6, align 8, !tbaa !259
  %25 = getelementptr inbounds nuw %struct.pmix_epilog_t, ptr %24, i32 0, i32 4
  %26 = getelementptr inbounds nuw %struct.pmix_list_t, ptr %25, i32 0, i32 1
  %27 = icmp ne ptr %23, %26
  br i1 %27, label %28, label %41

28:                                               ; preds = %22
  %29 = load ptr, ptr %11, align 8, !tbaa !3
  %30 = getelementptr inbounds nuw %struct.pmix_cleanup_file_t, ptr %29, i32 0, i32 1
  %31 = load ptr, ptr %30, align 8, !tbaa !25
  %32 = load ptr, ptr %4, align 8, !tbaa !264
  %33 = call i32 @strcmp(ptr noundef %31, ptr noundef %32) #17
  %34 = icmp eq i32 0, %33
  br i1 %34, label %35, label %36

35:                                               ; preds = %28
  store i32 1, ptr %12, align 4
  br label %147

36:                                               ; preds = %28
  br label %37

37:                                               ; preds = %36
  %38 = load ptr, ptr %11, align 8, !tbaa !3
  %39 = getelementptr inbounds nuw %struct.pmix_list_item_t, ptr %38, i32 0, i32 1
  %40 = load ptr, ptr %39, align 8, !tbaa !262
  store ptr %40, ptr %11, align 8, !tbaa !3
  br label %22, !llvm.loop !286

41:                                               ; preds = %22
  %42 = load ptr, ptr %4, align 8, !tbaa !264
  %43 = call ptr @opendir(ptr noundef %42)
  store ptr %43, ptr %7, align 8, !tbaa !275
  %44 = load ptr, ptr %7, align 8, !tbaa !275
  %45 = icmp eq ptr null, %44
  br i1 %45, label %46, label %47

46:                                               ; preds = %41
  store i32 1, ptr %12, align 4
  br label %147

47:                                               ; preds = %41
  br label %48

48:                                               ; preds = %124, %112, %99, %64, %47
  %49 = load ptr, ptr %7, align 8, !tbaa !275
  %50 = call ptr @readdir(ptr noundef %49)
  store ptr %50, ptr %9, align 8, !tbaa !287
  %51 = icmp ne ptr null, %50
  br i1 %51, label %52, label %125

52:                                               ; preds = %48
  %53 = load ptr, ptr %9, align 8, !tbaa !287
  %54 = getelementptr inbounds nuw %struct.dirent, ptr %53, i32 0, i32 4
  %55 = getelementptr inbounds [256 x i8], ptr %54, i64 0, i64 0
  %56 = call i32 @strcmp(ptr noundef %55, ptr noundef @.str.26) #17
  %57 = icmp eq i32 0, %56
  br i1 %57, label %64, label %58

58:                                               ; preds = %52
  %59 = load ptr, ptr %9, align 8, !tbaa !287
  %60 = getelementptr inbounds nuw %struct.dirent, ptr %59, i32 0, i32 4
  %61 = getelementptr inbounds [256 x i8], ptr %60, i64 0, i64 0
  %62 = call i32 @strcmp(ptr noundef %61, ptr noundef @.str.27) #17
  %63 = icmp eq i32 0, %62
  br i1 %63, label %64, label %65

64:                                               ; preds = %58, %52
  br label %48, !llvm.loop !289

65:                                               ; preds = %58
  %66 = load ptr, ptr %4, align 8, !tbaa !264
  %67 = load ptr, ptr %9, align 8, !tbaa !287
  %68 = getelementptr inbounds nuw %struct.dirent, ptr %67, i32 0, i32 4
  %69 = getelementptr inbounds [256 x i8], ptr %68, i64 0, i64 0
  %70 = call noalias ptr (i32, ...) @pmix_os_path(i32 noundef 0, ptr noundef %66, ptr noundef %69, ptr noundef null)
  store ptr %70, ptr %10, align 8, !tbaa !264
  %71 = load ptr, ptr %6, align 8, !tbaa !259
  %72 = getelementptr inbounds nuw %struct.pmix_epilog_t, ptr %71, i32 0, i32 4
  %73 = getelementptr inbounds nuw %struct.pmix_list_t, ptr %72, i32 0, i32 1
  %74 = getelementptr inbounds nuw %struct.pmix_list_item_t, ptr %73, i32 0, i32 1
  %75 = load ptr, ptr %74, align 8, !tbaa !285
  store ptr %75, ptr %11, align 8, !tbaa !3
  br label %76

76:                                               ; preds = %92, %65
  %77 = load ptr, ptr %11, align 8, !tbaa !3
  %78 = load ptr, ptr %6, align 8, !tbaa !259
  %79 = getelementptr inbounds nuw %struct.pmix_epilog_t, ptr %78, i32 0, i32 4
  %80 = getelementptr inbounds nuw %struct.pmix_list_t, ptr %79, i32 0, i32 1
  %81 = icmp ne ptr %77, %80
  br i1 %81, label %82, label %96

82:                                               ; preds = %76
  %83 = load ptr, ptr %11, align 8, !tbaa !3
  %84 = getelementptr inbounds nuw %struct.pmix_cleanup_file_t, ptr %83, i32 0, i32 1
  %85 = load ptr, ptr %84, align 8, !tbaa !25
  %86 = load ptr, ptr %10, align 8, !tbaa !264
  %87 = call i32 @strcmp(ptr noundef %85, ptr noundef %86) #17
  %88 = icmp eq i32 0, %87
  br i1 %88, label %89, label %91

89:                                               ; preds = %82
  %90 = load ptr, ptr %10, align 8, !tbaa !264
  call void @free(ptr noundef %90) #13
  store ptr null, ptr %10, align 8, !tbaa !264
  br label %96

91:                                               ; preds = %82
  br label %92

92:                                               ; preds = %91
  %93 = load ptr, ptr %11, align 8, !tbaa !3
  %94 = getelementptr inbounds nuw %struct.pmix_list_item_t, ptr %93, i32 0, i32 1
  %95 = load ptr, ptr %94, align 8, !tbaa !262
  store ptr %95, ptr %11, align 8, !tbaa !3
  br label %76, !llvm.loop !290

96:                                               ; preds = %89, %76
  %97 = load ptr, ptr %10, align 8, !tbaa !264
  %98 = icmp eq ptr null, %97
  br i1 %98, label %99, label %100

99:                                               ; preds = %96
  br label %48, !llvm.loop !289

100:                                              ; preds = %96
  %101 = load ptr, ptr %10, align 8, !tbaa !264
  %102 = call ptr @opendir(ptr noundef %101)
  store ptr %102, ptr %8, align 8, !tbaa !275
  %103 = load ptr, ptr %8, align 8, !tbaa !275
  %104 = icmp ne ptr null, %103
  br i1 %104, label %105, label %120

105:                                              ; preds = %100
  %106 = load ptr, ptr %8, align 8, !tbaa !275
  %107 = call i32 @closedir(ptr noundef %106)
  %108 = load ptr, ptr %5, align 8, !tbaa !3
  %109 = getelementptr inbounds nuw %struct.pmix_cleanup_dir_t, ptr %108, i32 0, i32 2
  %110 = load i8, ptr %109, align 8, !tbaa !31, !range !113, !noundef !114
  %111 = trunc i8 %110 to i1
  br i1 %111, label %114, label %112

112:                                              ; preds = %105
  %113 = load ptr, ptr %10, align 8, !tbaa !264
  call void @free(ptr noundef %113) #13
  br label %48, !llvm.loop !289

114:                                              ; preds = %105
  %115 = load ptr, ptr %10, align 8, !tbaa !264
  %116 = load ptr, ptr %5, align 8, !tbaa !3
  %117 = load ptr, ptr %6, align 8, !tbaa !259
  call void @dirpath_destroy(ptr noundef %115, ptr noundef %116, ptr noundef %117)
  %118 = load ptr, ptr %10, align 8, !tbaa !264
  call void @free(ptr noundef %118) #13
  br label %119

119:                                              ; preds = %114
  br label %124

120:                                              ; preds = %100
  %121 = load ptr, ptr %10, align 8, !tbaa !264
  %122 = call i32 @unlink(ptr noundef %121) #13
  %123 = load ptr, ptr %10, align 8, !tbaa !264
  call void @free(ptr noundef %123) #13
  br label %124

124:                                              ; preds = %120, %119
  br label %48, !llvm.loop !289

125:                                              ; preds = %48
  %126 = load ptr, ptr %7, align 8, !tbaa !275
  %127 = call i32 @closedir(ptr noundef %126)
  %128 = load ptr, ptr %4, align 8, !tbaa !264
  %129 = load ptr, ptr %5, align 8, !tbaa !3
  %130 = getelementptr inbounds nuw %struct.pmix_cleanup_dir_t, ptr %129, i32 0, i32 1
  %131 = load ptr, ptr %130, align 8, !tbaa !28
  %132 = call i32 @strcmp(ptr noundef %128, ptr noundef %131) #17
  %133 = icmp eq i32 0, %132
  br i1 %133, label %134, label %140

134:                                              ; preds = %125
  %135 = load ptr, ptr %5, align 8, !tbaa !3
  %136 = getelementptr inbounds nuw %struct.pmix_cleanup_dir_t, ptr %135, i32 0, i32 3
  %137 = load i8, ptr %136, align 1, !tbaa !32, !range !113, !noundef !114
  %138 = trunc i8 %137 to i1
  br i1 %138, label %139, label %140

139:                                              ; preds = %134
  store i32 1, ptr %12, align 4
  br label %147

140:                                              ; preds = %134, %125
  %141 = load ptr, ptr %4, align 8, !tbaa !264
  %142 = call zeroext i1 @dirpath_is_empty(ptr noundef %141)
  br i1 %142, label %143, label %146

143:                                              ; preds = %140
  %144 = load ptr, ptr %4, align 8, !tbaa !264
  %145 = call i32 @rmdir(ptr noundef %144) #13
  br label %146

146:                                              ; preds = %143, %140
  store i32 0, ptr %12, align 4
  br label %147

147:                                              ; preds = %146, %139, %46, %35, %15
  call void @llvm.lifetime.end.p0(i64 8, ptr %11) #13
  call void @llvm.lifetime.end.p0(i64 8, ptr %10) #13
  call void @llvm.lifetime.end.p0(i64 8, ptr %9) #13
  call void @llvm.lifetime.end.p0(i64 8, ptr %8) #13
  call void @llvm.lifetime.end.p0(i64 8, ptr %7) #13
  %148 = load i32, ptr %12, align 4
  switch i32 %148, label %150 [
    i32 0, label %149
    i32 1, label %149
  ]

149:                                              ; preds = %147, %147
  ret void

150:                                              ; preds = %147
  unreachable
}