; Function Attrs: nounwind uwtable
define internal fastcc void @dirpath_destroy(ptr noundef %0, ptr noundef readonly captures(none) %1, ptr noundef captures(address) %2) unnamed_addr #0 {
  %4 = icmp eq ptr %0, null
  br i1 %4, label %dirpath_is_empty.exit.thread, label %5

5:                                                ; preds = %3
  %6 = getelementptr inbounds nuw i8, ptr %2, i64 672
  %7 = getelementptr inbounds nuw i8, ptr %2, i64 792
  %.055 = load ptr, ptr %7, align 8, !tbaa !27
  %.not56 = icmp eq ptr %.055, %6
  br i1 %.not56, label %._crit_edge, label %.lr.ph

8:                                                ; preds = %.lr.ph
  %9 = getelementptr inbounds nuw i8, ptr %.057, i64 120
  %.0 = load ptr, ptr %9, align 8, !tbaa !27
  %.not = icmp eq ptr %.0, %6
  br i1 %.not, label %._crit_edge, label %.lr.ph, !llvm.loop !246

.lr.ph:                                           ; preds = %5, %8
  %.057 = phi ptr [ %.0, %8 ], [ %.055, %5 ]
  %10 = getelementptr inbounds nuw i8, ptr %.057, i64 144
  %11 = load ptr, ptr %10, align 8, !tbaa !32
  %12 = tail call i32 @strcmp(ptr noundef nonnull dereferenceable(1) %11, ptr noundef nonnull dereferenceable(1) %0) #20
  %13 = icmp eq i32 %12, 0
  br i1 %13, label %dirpath_is_empty.exit.thread, label %8

._crit_edge:                                      ; preds = %8, %5
  %14 = tail call ptr @opendir(ptr noundef nonnull %0)
  %15 = icmp eq ptr %14, null
  br i1 %15, label %dirpath_is_empty.exit.thread, label %.preheader

.preheader:                                       ; preds = %._crit_edge
  %16 = tail call ptr @readdir(ptr noundef nonnull %14) #15
  %.not4463 = icmp eq ptr %16, null
  br i1 %.not4463, label %._crit_edge64, label %sub_0.lr.ph

sub_0.lr.ph:                                      ; preds = %.preheader
  %17 = getelementptr inbounds nuw i8, ptr %1, i64 152
  br label %sub_0

sub_0:                                            ; preds = %sub_0.lr.ph, %.backedge
  %18 = phi ptr [ %16, %sub_0.lr.ph ], [ %29, %.backedge ]
  %19 = getelementptr inbounds nuw i8, ptr %18, i64 19
  %20 = load i8, ptr %19, align 1
  %.not65 = icmp eq i8 %20, 46
  br i1 %.not65, label %.tail, label %.tail50.thread

.tail:                                            ; preds = %sub_0
  %21 = getelementptr inbounds nuw i8, ptr %18, i64 20
  %22 = load i8, ptr %21, align 1
  %23 = icmp eq i8 %22, 0
  br i1 %23, label %.backedge, label %sub_152

sub_152:                                          ; preds = %.tail
  %24 = getelementptr inbounds nuw i8, ptr %18, i64 20
  %25 = load i8, ptr %24, align 1
  %.not67 = icmp eq i8 %25, 46
  br i1 %.not67, label %.tail50, label %.tail50.thread

.tail50:                                          ; preds = %sub_152
  %26 = getelementptr inbounds nuw i8, ptr %18, i64 21
  %27 = load i8, ptr %26, align 1
  %28 = icmp eq i8 %27, 0
  br i1 %28, label %.backedge, label %.tail50.thread

.backedge.sink.split:                             ; preds = %.lr.ph62, %39, %44, %43
  tail call void @free(ptr noundef nonnull %30) #15
  br label %.backedge

.backedge:                                        ; preds = %.backedge.sink.split, %.tail, %.tail50, %.loopexit54
  %29 = tail call ptr @readdir(ptr noundef nonnull %14) #15
  %.not44 = icmp eq ptr %29, null
  br i1 %.not44, label %._crit_edge64, label %sub_0, !llvm.loop !247

.tail50.thread:                                   ; preds = %sub_0, %sub_152, %.tail50
  %30 = tail call noalias ptr (i32, ...) @pmix_os_path(i32 noundef 0, ptr noundef nonnull %0, ptr noundef nonnull %19, ptr noundef null) #15
  %.158 = load ptr, ptr %7, align 8, !tbaa !27
  %.not4559 = icmp eq ptr %.158, %6
  br i1 %.not4559, label %.loopexit54, label %.lr.ph62

31:                                               ; preds = %.lr.ph62
  %32 = getelementptr inbounds nuw i8, ptr %.160, i64 120
  %.1 = load ptr, ptr %32, align 8, !tbaa !27
  %.not45 = icmp eq ptr %.1, %6
  br i1 %.not45, label %.loopexit54.thread69, label %.lr.ph62, !llvm.loop !248

.lr.ph62:                                         ; preds = %.tail50.thread, %31
  %.160 = phi ptr [ %.1, %31 ], [ %.158, %.tail50.thread ]
  %33 = getelementptr inbounds nuw i8, ptr %.160, i64 144
  %34 = load ptr, ptr %33, align 8, !tbaa !32
  %35 = tail call i32 @strcmp(ptr noundef nonnull dereferenceable(1) %34, ptr noundef nonnull dereferenceable(1) %30) #20
  %36 = icmp eq i32 %35, 0
  br i1 %36, label %.backedge.sink.split, label %31

.loopexit54:                                      ; preds = %.tail50.thread
  %37 = icmp eq ptr %30, null
  br i1 %37, label %.backedge, label %.loopexit54.thread69

.loopexit54.thread69:                             ; preds = %31, %.loopexit54
  %38 = tail call ptr @opendir(ptr noundef nonnull %30)
  %.not46 = icmp eq ptr %38, null
  br i1 %.not46, label %44, label %39

39:                                               ; preds = %.loopexit54.thread69
  %40 = tail call i32 @closedir(ptr noundef nonnull %38)
  %41 = load i8, ptr %17, align 8, !tbaa !37, !range !115, !noundef !116
  %42 = trunc nuw i8 %41 to i1
  br i1 %42, label %43, label %.backedge.sink.split

43:                                               ; preds = %39
  tail call fastcc void @dirpath_destroy(ptr noundef nonnull %30, ptr noundef nonnull %1, ptr noundef %2)
  br label %.backedge.sink.split

44:                                               ; preds = %.loopexit54.thread69
  %45 = tail call i32 @unlink(ptr noundef nonnull %30) #15
  br label %.backedge.sink.split

._crit_edge64:                                    ; preds = %.backedge, %.preheader
  %46 = tail call i32 @closedir(ptr noundef nonnull %14)
  %47 = getelementptr inbounds nuw i8, ptr %1, i64 144
  %48 = load ptr, ptr %47, align 8, !tbaa !34
  %49 = tail call i32 @strcmp(ptr noundef nonnull dereferenceable(1) %0, ptr noundef nonnull dereferenceable(1) %48) #20
  %50 = icmp eq i32 %49, 0
  br i1 %50, label %51, label %55

51:                                               ; preds = %._crit_edge64
  %52 = getelementptr inbounds nuw i8, ptr %1, i64 153
  %53 = load i8, ptr %52, align 1, !tbaa !38, !range !115, !noundef !116
  %54 = trunc nuw i8 %53 to i1
  br i1 %54, label %dirpath_is_empty.exit.thread, label %55

55:                                               ; preds = %51, %._crit_edge64
  %56 = tail call ptr @opendir(ptr noundef nonnull readonly %0)
  %.not.i = icmp eq ptr %56, null
  br i1 %.not.i, label %dirpath_is_empty.exit.thread, label %.preheader.i

.preheader.i:                                     ; preds = %55
  %57 = tail call ptr @readdir(ptr noundef nonnull %56) #15
  %.not1118.i = icmp eq ptr %57, null
  br i1 %.not1118.i, label %.loopexit, label %sub_0.i

sub_0.i:                                          ; preds = %.preheader.i, %66
  %58 = phi ptr [ %67, %66 ], [ %57, %.preheader.i ]
  %59 = getelementptr inbounds nuw i8, ptr %58, i64 19
  %60 = load i8, ptr %59, align 1
  %.not19.i = icmp eq i8 %60, 46
  br i1 %.not19.i, label %.tail.i, label %dirpath_is_empty.exit.thread48

.tail.i:                                          ; preds = %sub_0.i
  %61 = getelementptr inbounds nuw i8, ptr %58, i64 20
  %62 = load i8, ptr %61, align 1
  switch i8 %62, label %dirpath_is_empty.exit.thread48 [
    i8 0, label %66
    i8 46, label %.tail14.i
  ]

.tail14.i:                                        ; preds = %.tail.i
  %63 = getelementptr inbounds nuw i8, ptr %58, i64 21
  %64 = load i8, ptr %63, align 1
  %65 = icmp eq i8 %64, 0
  br i1 %65, label %66, label %dirpath_is_empty.exit.thread48

66:                                               ; preds = %.tail.i, %.tail14.i
  %67 = tail call ptr @readdir(ptr noundef nonnull %56) #15
  %.not11.i = icmp eq ptr %67, null
  br i1 %.not11.i, label %.loopexit, label %sub_0.i, !llvm.loop !249

dirpath_is_empty.exit.thread48:                   ; preds = %.tail.i, %sub_0.i, %.tail14.i
  %68 = tail call i32 @closedir(ptr noundef nonnull %56)
  br label %dirpath_is_empty.exit.thread

.loopexit:                                        ; preds = %66, %.preheader.i
  %69 = tail call i32 @closedir(ptr noundef nonnull %56)
  %70 = tail call i32 @rmdir(ptr noundef nonnull %0) #15
  br label %dirpath_is_empty.exit.thread

dirpath_is_empty.exit.thread:                     ; preds = %.lr.ph, %55, %dirpath_is_empty.exit.thread48, %.loopexit, %51, %._crit_edge, %3
  ret void
}